; ModuleID = 'source-C-CXX/29/2813.cpp'
source_filename = "source-C-CXX/29/2813.cpp"
target datalayout = "e-m:e-p270:32:32-p271:32:32-p272:64:64-i64:64-f80:128-n8:16:32:64-S128"
target triple = "x86_64-pc-linux-gnu"

%"class.std::ios_base::Init" = type { i8 }
%"class.std::basic_istream" = type { i32 (...)**, i64, %"class.std::basic_ios" }
%"class.std::basic_ios" = type { %"class.std::ios_base", %"class.std::basic_ostream"*, i8, i8, %"class.std::basic_streambuf"*, %"class.std::ctype"*, %"class.std::num_put"*, %"class.std::num_get"* }
%"class.std::ios_base" = type { i32 (...)**, i64, i64, i32, i32, i32, %"struct.std::ios_base::_Callback_list"*, %"struct.std::ios_base::_Words", [8 x %"struct.std::ios_base::_Words"], i32, %"struct.std::ios_base::_Words"*, %"class.std::locale" }
%"struct.std::ios_base::_Callback_list" = type { %"struct.std::ios_base::_Callback_list"*, void (i32, %"class.std::ios_base"*, i32)*, i32, i32 }
%"struct.std::ios_base::_Words" = type { i8*, i64 }
%"class.std::locale" = type { %"class.std::locale::_Impl"* }
%"class.std::locale::_Impl" = type { i32, %"class.std::locale::facet"**, i64, %"class.std::locale::facet"**, i8** }
%"class.std::locale::facet" = type <{ i32 (...)**, i32, [4 x i8] }>
%"class.std::basic_ostream" = type { i32 (...)**, %"class.std::basic_ios" }
%"class.std::basic_streambuf" = type { i32 (...)**, i8*, i8*, i8*, i8*, i8*, i8*, %"class.std::locale" }
%"class.std::ctype" = type <{ %"class.std::locale::facet.base", [4 x i8], %struct.__locale_struct*, i8, [7 x i8], i32*, i32*, i16*, i8, [256 x i8], [256 x i8], i8, [6 x i8] }>
%"class.std::locale::facet.base" = type <{ i32 (...)**, i32 }>
%struct.__locale_struct = type { [13 x %struct.__locale_data*], i16*, i32*, i32*, [13 x i8*] }
%struct.__locale_data = type opaque
%"class.std::num_put" = type { %"class.std::locale::facet.base", [4 x i8] }
%"class.std::num_get" = type { %"class.std::locale::facet.base", [4 x i8] }

@_ZStL8__ioinit = internal global %"class.std::ios_base::Init" zeroinitializer, align 1
@__dso_handle = external hidden global i8
@_ZSt3cin = external global %"class.std::basic_istream", align 8
@_ZSt4cout = external global %"class.std::basic_ostream", align 8
@llvm.global_ctors = appending global [1 x { i32, void ()*, i8* }] [{ i32, void ()*, i8* } { i32 65535, void ()* @_GLOBAL__sub_I_2813.cpp, i8* null }]

declare void @_ZNSt8ios_base4InitC1Ev(%"class.std::ios_base::Init"* nonnull align 1 dereferenceable(1)) unnamed_addr #0

; Function Attrs: nounwind
declare void @_ZNSt8ios_base4InitD1Ev(%"class.std::ios_base::Init"* nonnull align 1 dereferenceable(1)) unnamed_addr #1

; Function Attrs: nofree nounwind
declare i32 @__cxa_atexit(void (i8*)*, i8*, i8*) local_unnamed_addr #2

; Function Attrs: mustprogress norecurse sspstrong uwtable
define dso_local i32 @main() local_unnamed_addr #3 {
  %1 = alloca i32, align 4
  %2 = alloca [100 x i32], align 16
  %3 = alloca i32, align 4
  %4 = bitcast i32* %1 to i8*
  call void @llvm.lifetime.start.p0i8(i64 4, i8* nonnull %4) #7
  %5 = bitcast [100 x i32]* %2 to i8*
  call void @llvm.lifetime.start.p0i8(i64 400, i8* nonnull %5) #7
  %6 = call nonnull align 8 dereferenceable(16) %"class.std::basic_istream"* @_ZNSirsERi(%"class.std::basic_istream"* nonnull align 8 dereferenceable(16) @_ZSt3cin, i32* nonnull align 4 dereferenceable(4) %1)
  %7 = load i32, i32* %1, align 4, !tbaa !5
  %8 = icmp slt i32 %7, 1
  br i1 %8, label %81, label %9

9:                                                ; preds = %0
  %10 = add nuw i32 %7, 1
  %11 = zext i32 %10 to i64
  br label %52

12:                                               ; preds = %66
  br i1 %8, label %81, label %13

13:                                               ; preds = %12
  %14 = add nuw i32 %7, 1
  %15 = zext i32 %14 to i64
  %16 = add nsw i64 %11, -1
  %17 = icmp ult i64 %16, 8
  br i1 %17, label %49, label %18

18:                                               ; preds = %13
  %19 = and i64 %16, -8
  %20 = or i64 %19, 1
  br label %21

21:                                               ; preds = %21, %18
  %22 = phi i64 [ 0, %18 ], [ %42, %21 ]
  %23 = phi <4 x i32> [ zeroinitializer, %18 ], [ %40, %21 ]
  %24 = phi <4 x i32> [ zeroinitializer, %18 ], [ %41, %21 ]
  %25 = phi <4 x i32> [ <i32 1, i32 2, i32 3, i32 4>, %18 ], [ %43, %21 ]
  %26 = or i64 %22, 1
  %27 = getelementptr inbounds [100 x i32], [100 x i32]* %2, i64 0, i64 %26
  %28 = bitcast i32* %27 to <4 x i32>*
  %29 = load <4 x i32>, <4 x i32>* %28, align 4, !tbaa !5
  %30 = getelementptr inbounds i32, i32* %27, i64 4
  %31 = bitcast i32* %30 to <4 x i32>*
  %32 = load <4 x i32>, <4 x i32>* %31, align 4, !tbaa !5
  %33 = icmp eq <4 x i32> %29, <i32 1, i32 1, i32 1, i32 1>
  %34 = icmp eq <4 x i32> %32, <i32 1, i32 1, i32 1, i32 1>
  %35 = add <4 x i32> %25, <i32 4, i32 4, i32 4, i32 4>
  %36 = mul nsw <4 x i32> %25, %25
  %37 = mul nsw <4 x i32> %35, %35
  %38 = select <4 x i1> %33, <4 x i32> %36, <4 x i32> zeroinitializer
  %39 = select <4 x i1> %34, <4 x i32> %37, <4 x i32> zeroinitializer
  %40 = add <4 x i32> %38, %23
  %41 = add <4 x i32> %39, %24
  %42 = add nuw i64 %22, 8
  %43 = add <4 x i32> %25, <i32 8, i32 8, i32 8, i32 8>
  %44 = icmp eq i64 %42, %19
  br i1 %44, label %45, label %21, !llvm.loop !9

45:                                               ; preds = %21
  %46 = add <4 x i32> %41, %40
  %47 = call i32 @llvm.vector.reduce.add.v4i32(<4 x i32> %46)
  %48 = icmp eq i64 %16, %19
  br i1 %48, label %81, label %49

49:                                               ; preds = %13, %45
  %50 = phi i64 [ 1, %13 ], [ %20, %45 ]
  %51 = phi i32 [ 0, %13 ], [ %47, %45 ]
  br label %69

52:                                               ; preds = %9, %66
  %53 = phi i64 [ 1, %9 ], [ %67, %66 ]
  %54 = getelementptr inbounds [100 x i32], [100 x i32]* %2, i64 0, i64 %53
  store i32 1, i32* %54, align 4, !tbaa !5
  %55 = trunc i64 %53 to i32
  %56 = add i32 %55, -70
  %57 = icmp ult i32 %56, 10
  br i1 %57, label %65, label %58

58:                                               ; preds = %52
  %59 = trunc i64 %53 to i32
  %60 = urem i32 %59, 10
  %61 = icmp eq i32 %60, 7
  %62 = urem i32 %59, 7
  %63 = icmp eq i32 %62, 0
  %64 = or i1 %61, %63
  br i1 %64, label %65, label %66

65:                                               ; preds = %58, %52
  store i32 0, i32* %54, align 4, !tbaa !5
  br label %66

66:                                               ; preds = %58, %65
  %67 = add nuw nsw i64 %53, 1
  %68 = icmp eq i64 %67, %11
  br i1 %68, label %12, label %52, !llvm.loop !12

69:                                               ; preds = %49, %69
  %70 = phi i64 [ %79, %69 ], [ %50, %49 ]
  %71 = phi i32 [ %78, %69 ], [ %51, %49 ]
  %72 = getelementptr inbounds [100 x i32], [100 x i32]* %2, i64 0, i64 %70
  %73 = load i32, i32* %72, align 4, !tbaa !5
  %74 = icmp eq i32 %73, 1
  %75 = trunc i64 %70 to i32
  %76 = mul nsw i32 %75, %75
  %77 = select i1 %74, i32 %76, i32 0
  %78 = add nuw nsw i32 %77, %71
  %79 = add nuw nsw i64 %70, 1
  %80 = icmp eq i64 %79, %15
  br i1 %80, label %81, label %69, !llvm.loop !13

81:                                               ; preds = %69, %45, %0, %12
  %82 = phi i32 [ 0, %12 ], [ 0, %0 ], [ %47, %45 ], [ %78, %69 ]
  %83 = call nonnull align 8 dereferenceable(8) %"class.std::basic_ostream"* @_ZNSolsEi(%"class.std::basic_ostream"* nonnull align 8 dereferenceable(8) @_ZSt4cout, i32 %82)
  %84 = bitcast i32* %3 to i8*
  call void @llvm.lifetime.start.p0i8(i64 4, i8* nonnull %84) #7
  %85 = call nonnull align 8 dereferenceable(16) %"class.std::basic_istream"* @_ZNSirsERi(%"class.std::basic_istream"* nonnull align 8 dereferenceable(16) @_ZSt3cin, i32* nonnull align 4 dereferenceable(4) %3)
  call void @llvm.lifetime.end.p0i8(i64 4, i8* nonnull %84) #7
  call void @llvm.lifetime.end.p0i8(i64 400, i8* nonnull %5) #7
  call void @llvm.lifetime.end.p0i8(i64 4, i8* nonnull %4) #7
  ret i32 0
}

; Function Attrs: argmemonly mustprogress nofree nosync nounwind willreturn
declare void @llvm.lifetime.start.p0i8(i64 immarg, i8* nocapture) #4

declare nonnull align 8 dereferenceable(16) %"class.std::basic_istream"* @_ZNSirsERi(%"class.std::basic_istream"* nonnull align 8 dereferenceable(16), i32* nonnull align 4 dereferenceable(4)) local_unnamed_addr #0

declare nonnull align 8 dereferenceable(8) %"class.std::basic_ostream"* @_ZNSolsEi(%"class.std::basic_ostream"* nonnull align 8 dereferenceable(8), i32) local_unnamed_addr #0

; Function Attrs: argmemonly mustprogress nofree nosync nounwind willreturn
declare void @llvm.lifetime.end.p0i8(i64 immarg, i8* nocapture) #4

; Function Attrs: sspstrong uwtable
define internal void @_GLOBAL__sub_I_2813.cpp() #5 section ".text.startup" {
  tail call void @_ZNSt8ios_base4InitC1Ev(%"class.std::ios_base::Init"* nonnull align 1 dereferenceable(1) @_ZStL8__ioinit)
  %1 = tail call i32 @__cxa_atexit(void (i8*)* bitcast (void (%"class.std::ios_base::Init"*)* @_ZNSt8ios_base4InitD1Ev to void (i8*)*), i8* getelementptr inbounds (%"class.std::ios_base::Init", %"class.std::ios_base::Init"* @_ZStL8__ioinit, i64 0, i32 0), i8* nonnull @__dso_handle) #7
  ret void
}

; Function Attrs: nofree nosync nounwind readnone willreturn
declare i32 @llvm.vector.reduce.add.v4i32(<4 x i32>) #6


!llvm.module.flags = !{!0, !1, !2, !3}
!llvm.ident = !{!4}

!0 = !{i32 1, !"wchar_size", i32 4}
!1 = !{i32 7, !"PIC Level", i32 2}
!2 = !{i32 7, !"PIE Level", i32 2}
!3 = !{i32 7, !"uwtable", i32 1}
!4 = !{!"clang version 13.0.0"}
!5 = !{!6, !6, i64 0}
!6 = !{!"int", !7, i64 0}
!7 = !{!"omnipotent char", !8, i64 0}
!8 = !{!"Simple C++ TBAA"}
!9 = distinct !{!9, !10, !11}
!10 = !{!"llvm.loop.mustprogress"}
!11 = !{!"llvm.loop.isvectorized", i32 1}
!12 = distinct !{!12, !10}
!13 = distinct !{!13, !10, !14, !11}
!14 = !{!"llvm.loop.unroll.runtime.disable"}
